; Function Attrs: mustprogress uwtable
define dso_local void @_ZN23cmCursesLongMessageForm9PrintKeysEv(ptr nocapture noundef nonnull readonly align 8 dereferenceable(104) %0) local_unnamed_addr #0 align 2 {
  %2 = alloca [512 x i8], align 16
  %3 = alloca [3 x i8], align 1
  %4 = load ptr, ptr @stdscr, align 8
  %.not = icmp eq ptr %4, null
  br i1 %.not, label %.thread7, label %5

5:                                                ; preds = %1
  %6 = getelementptr inbounds i8, ptr %4, i64 4
  %7 = load i16, ptr %6, align 4
  %8 = getelementptr inbounds i8, ptr %4, i64 6
  %9 = load i16, ptr %8, align 2
  %10 = icmp slt i16 %9, 64
  %11 = icmp slt i16 %7, 5
  %or.cond = select i1 %10, i1 true, i1 %11
  br i1 %or.cond, label %.thread7, label %12

12:                                               ; preds = %5
  %13 = zext nneg i16 %7 to i32
  call void @llvm.memcpy.p0.p0.i64(ptr noundef nonnull align 16 dereferenceable(25) %2, ptr noundef nonnull align 1 dereferenceable(25) @.str.3, i64 25, i1 false)
  call void @llvm.memcpy.p0.p0.i64(ptr noundef nonnull align 1 dereferenceable(3) %3, ptr noundef nonnull align 1 dereferenceable(3) @__const._ZN23cmCursesLongMessageForm9PrintKeysEv.fmt_s, i64 3, i1 false)
  %14 = add nsw i32 %13, -1
  %15 = tail call i32 @move(i32 noundef %14, i32 noundef 0)
  %16 = call i32 (ptr, ...) @printw(ptr noundef nonnull %3, ptr noundef nonnull %2)
  %17 = getelementptr inbounds i8, ptr %0, i64 8
  %18 = load ptr, ptr %17, align 8
  %19 = call i32 @pos_form_cursor(ptr noundef %18)
  br label %.thread7

.thread7:                                         ; preds = %1, %5, %12
  ret void
}